target datalayout = "e-m:e-p270:32:32-p271:32:32-p272:64:64-i64:64-i128:128-f80:128-n8:16:32:64-S128"
target triple = "x86_64-pc-linux-gnu"

%struct.config_bool = type { %struct.config_generic, ptr, i8, ptr, ptr, ptr, i8, ptr }
%struct.config_generic = type { ptr, i32, i32, ptr, ptr, i32, i32, i32, i32, i32, i32, i32, i32, i32, ptr, ptr, %struct.dlist_node, %struct.slist_node, %struct.slist_node, ptr, ptr, i32 }
%struct.dlist_node = type { ptr, ptr }
%struct.slist_node = type { ptr }
%struct.config_int = type { %struct.config_generic, ptr, i32, i32, i32, ptr, ptr, ptr, i32, ptr }
%struct.config_real = type { %struct.config_generic, ptr, double, double, double, ptr, ptr, ptr, double, ptr }
%struct.config_string = type { %struct.config_generic, ptr, ptr, ptr, ptr, ptr, ptr, ptr }
%struct.config_enum = type { %struct.config_generic, ptr, i32, ptr, ptr, ptr, ptr, i32, ptr }
%struct.config_enum_entry = type { ptr, i32, i8 }

@.str.3 = private unnamed_addr constant [6 x i8] c"guc.c\00", align 1
@.str.8 = private unnamed_addr constant [1 x i8] zeroinitializer, align 1
@.str.55 = private unnamed_addr constant [37 x i8] c"could not find enum option %d for %s\00", align 1
@__func__.config_enum_lookup_by_value = private unnamed_addr constant [28 x i8] c"config_enum_lookup_by_value\00", align 1
@.str.69 = private unnamed_addr constant [34 x i8] c"permission denied to examine \22%s\22\00", align 1
@.str.70 = private unnamed_addr constant [72 x i8] c"Only roles with privileges of the \22%s\22 role may examine this parameter.\00", align 1
@.str.71 = private unnamed_addr constant [21 x i8] c"pg_read_all_settings\00", align 1
@.str.72 = private unnamed_addr constant [3 x i8] c"on\00", align 1
@.str.73 = private unnamed_addr constant [4 x i8] c"off\00", align 1
@.str.74 = private unnamed_addr constant [3 x i8] c"%d\00", align 1
@.str.75 = private unnamed_addr constant [3 x i8] c"%g\00", align 1
@GetConfigOptionResetString.buffer = internal global [256 x i8] zeroinitializer, align 16
@__func__.GetConfigOptionResetString = private unnamed_addr constant [27 x i8] c"GetConfigOptionResetString\00", align 1

; Function Attrs: nounwind uwtable
define dso_local ptr @config_enum_lookup_by_value(ptr noundef %0, i32 noundef %1) #0 {
  %3 = alloca ptr, align 8
  %4 = alloca ptr, align 8
  %5 = alloca i32, align 4
  %6 = alloca ptr, align 8
  %7 = alloca i32, align 4
  store ptr %0, ptr %4, align 8
  store i32 %1, ptr %5, align 4
  call void @llvm.lifetime.start.p0(i64 8, ptr %6) #16
  %8 = load ptr, ptr %4, align 8
  %9 = getelementptr inbounds nuw %struct.config_enum, ptr %8, i32 0, i32 3
  %10 = load ptr, ptr %9, align 8
  store ptr %10, ptr %6, align 8
  br label %11

11:                                               ; preds = %32, %2
  %12 = load ptr, ptr %6, align 8
  %13 = icmp ne ptr %12, null
  br i1 %13, label %14, label %19

14:                                               ; preds = %11
  %15 = load ptr, ptr %6, align 8
  %16 = getelementptr inbounds nuw %struct.config_enum_entry, ptr %15, i32 0, i32 0
  %17 = load ptr, ptr %16, align 8
  %18 = icmp ne ptr %17, null
  br label %19

19:                                               ; preds = %14, %11
  %20 = phi i1 [ false, %11 ], [ %18, %14 ]
  br i1 %20, label %21, label %35

21:                                               ; preds = %19
  %22 = load ptr, ptr %6, align 8
  %23 = getelementptr inbounds nuw %struct.config_enum_entry, ptr %22, i32 0, i32 1
  %24 = load i32, ptr %23, align 8
  %25 = load i32, ptr %5, align 4
  %26 = icmp eq i32 %24, %25
  br i1 %26, label %27, label %31

27:                                               ; preds = %21
  %28 = load ptr, ptr %6, align 8
  %29 = getelementptr inbounds nuw %struct.config_enum_entry, ptr %28, i32 0, i32 0
  %30 = load ptr, ptr %29, align 8
  store ptr %30, ptr %3, align 8
  store i32 1, ptr %7, align 4
  br label %51

31:                                               ; preds = %21
  br label %32

32:                                               ; preds = %31
  %33 = load ptr, ptr %6, align 8
  %34 = getelementptr inbounds nuw %struct.config_enum_entry, ptr %33, i32 1
  store ptr %34, ptr %6, align 8
  br label %11, !llvm.loop !43

35:                                               ; preds = %19
  br label %36

36:                                               ; preds = %35
  br i1 true, label %37, label %39

37:                                               ; preds = %36
  %38 = call zeroext i1 @errstart_cold(i32 noundef 21, ptr noundef null) #18
  br i1 %38, label %41, label %48

39:                                               ; preds = %36
  %40 = call zeroext i1 @errstart(i32 noundef 21, ptr noundef null)
  br i1 %40, label %41, label %48

41:                                               ; preds = %39, %37
  %42 = load i32, ptr %5, align 4
  %43 = load ptr, ptr %4, align 8
  %44 = getelementptr inbounds nuw %struct.config_enum, ptr %43, i32 0, i32 0
  %45 = getelementptr inbounds nuw %struct.config_generic, ptr %44, i32 0, i32 0
  %46 = load ptr, ptr %45, align 8
  %47 = call i32 (ptr, ...) @errmsg_internal(ptr noundef @.str.55, i32 noundef %42, ptr noundef %46)
  call void @errfinish(ptr noundef @.str.3, i32 noundef 3034, ptr noundef @__func__.config_enum_lookup_by_value)
  br label %48

48:                                               ; preds = %41, %39, %37
  unreachable

49:                                               ; No predecessors!
  br label %50

50:                                               ; preds = %49
  store ptr null, ptr %3, align 8
  store i32 1, ptr %7, align 4
  br label %51

51:                                               ; preds = %50, %27
  call void @llvm.lifetime.end.p0(i64 8, ptr %6) #16
  %52 = load ptr, ptr %3, align 8
  ret ptr %52
}

; Function Attrs: nounwind uwtable
define dso_local ptr @GetConfigOptionResetString(ptr noundef %0) #0 {
  %2 = alloca ptr, align 8
  %3 = alloca ptr, align 8
  %4 = alloca ptr, align 8
  %5 = alloca i32, align 4
  store ptr %0, ptr %3, align 8
  call void @llvm.lifetime.start.p0(i64 8, ptr %4) #16
  %6 = load ptr, ptr %3, align 8
  %7 = call ptr @find_option(ptr noundef %6, i1 noundef zeroext false, i1 noundef zeroext false, i32 noundef 21)
  store ptr %7, ptr %4, align 8
  %8 = load ptr, ptr %4, align 8
  %9 = call zeroext i1 @ConfigOptionIsVisible(ptr noundef %8)
  br i1 %9, label %24, label %10

10:                                               ; preds = %1
  br label %11

11:                                               ; preds = %10
  br i1 true, label %12, label %14

12:                                               ; preds = %11
  %13 = call zeroext i1 @errstart_cold(i32 noundef 21, ptr noundef null) #18
  br i1 %13, label %16, label %21

14:                                               ; preds = %11
  %15 = call zeroext i1 @errstart(i32 noundef 21, ptr noundef null)
  br i1 %15, label %16, label %21

16:                                               ; preds = %14, %12
  %17 = call i32 @errcode(i32 noundef 16797828)
  %18 = load ptr, ptr %3, align 8
  %19 = call i32 (ptr, ...) @errmsg(ptr noundef @.str.69, ptr noundef %18)
  %20 = call i32 (ptr, ...) @errdetail(ptr noundef @.str.70, ptr noundef @.str.71)
  call void @errfinish(ptr noundef @.str.3, i32 noundef 4417, ptr noundef @__func__.GetConfigOptionResetString)
  br label %21

21:                                               ; preds = %16, %14, %12
  unreachable

22:                                               ; No predecessors!
  br label %23

23:                                               ; preds = %22
  br label %24

24:                                               ; preds = %23, %1
  %25 = load ptr, ptr %4, align 8
  %26 = getelementptr inbounds nuw %struct.config_generic, ptr %25, i32 0, i32 6
  %27 = load i32, ptr %26, align 4
  switch i32 %27, label %62 [
    i32 0, label %28
    i32 1, label %34
    i32 2, label %39
    i32 3, label %44
    i32 4, label %56
  ]

28:                                               ; preds = %24
  %29 = load ptr, ptr %4, align 8
  %30 = getelementptr inbounds nuw %struct.config_bool, ptr %29, i32 0, i32 6
  %31 = load i8, ptr %30, align 8, !range !4, !noundef !5
  %32 = trunc i8 %31 to i1
  %33 = select i1 %32, ptr @.str.72, ptr @.str.73
  store ptr %33, ptr %2, align 8
  store i32 1, ptr %5, align 4
  br label %63

34:                                               ; preds = %24
  %35 = load ptr, ptr %4, align 8
  %36 = getelementptr inbounds nuw %struct.config_int, ptr %35, i32 0, i32 8
  %37 = load i32, ptr %36, align 8
  %38 = call i32 (ptr, i64, ptr, ...) @pg_snprintf(ptr noundef @GetConfigOptionResetString.buffer, i64 noundef 256, ptr noundef @.str.74, i32 noundef %37)
  store ptr @GetConfigOptionResetString.buffer, ptr %2, align 8
  store i32 1, ptr %5, align 4
  br label %63

39:                                               ; preds = %24
  %40 = load ptr, ptr %4, align 8
  %41 = getelementptr inbounds nuw %struct.config_real, ptr %40, i32 0, i32 8
  %42 = load double, ptr %41, align 8
  %43 = call i32 (ptr, i64, ptr, ...) @pg_snprintf(ptr noundef @GetConfigOptionResetString.buffer, i64 noundef 256, ptr noundef @.str.75, double noundef %42)
  store ptr @GetConfigOptionResetString.buffer, ptr %2, align 8
  store i32 1, ptr %5, align 4
  br label %63

44:                                               ; preds = %24
  %45 = load ptr, ptr %4, align 8
  %46 = getelementptr inbounds nuw %struct.config_string, ptr %45, i32 0, i32 6
  %47 = load ptr, ptr %46, align 8
  %48 = icmp ne ptr %47, null
  br i1 %48, label %49, label %53

49:                                               ; preds = %44
  %50 = load ptr, ptr %4, align 8
  %51 = getelementptr inbounds nuw %struct.config_string, ptr %50, i32 0, i32 6
  %52 = load ptr, ptr %51, align 8
  br label %54

53:                                               ; preds = %44
  br label %54

54:                                               ; preds = %53, %49
  %55 = phi ptr [ %52, %49 ], [ @.str.8, %53 ]
  store ptr %55, ptr %2, align 8
  store i32 1, ptr %5, align 4
  br label %63

56:                                               ; preds = %24
  %57 = load ptr, ptr %4, align 8
  %58 = load ptr, ptr %4, align 8
  %59 = getelementptr inbounds nuw %struct.config_enum, ptr %58, i32 0, i32 7
  %60 = load i32, ptr %59, align 8
  %61 = call ptr @config_enum_lookup_by_value(ptr noundef %57, i32 noundef %60)
  store ptr %61, ptr %2, align 8
  store i32 1, ptr %5, align 4
  br label %63

62:                                               ; preds = %24
  store ptr null, ptr %2, align 8
  store i32 1, ptr %5, align 4
  br label %63

63:                                               ; preds = %62, %56, %54, %39, %34, %28
  call void @llvm.lifetime.end.p0(i64 8, ptr %4) #16
  %64 = load ptr, ptr %2, align 8
  ret ptr %64
}