; Function Attrs: nounwind uwtable
define dso_local ptr @GetConfigOptionResetString(ptr noundef %0) local_unnamed_addr #0 {
  %2 = tail call ptr @find_option(ptr noundef %0, i1 noundef zeroext false, i1 noundef zeroext false, i32 noundef 21)
  %3 = tail call zeroext i1 @ConfigOptionIsVisible(ptr noundef %2) #29
  br i1 %3, label %9, label %4

4:                                                ; preds = %1
  %5 = tail call zeroext i1 @errstart_cold(i32 noundef 21, ptr noundef null) #31
  tail call void @llvm.assume(i1 %5)
  %6 = tail call i32 @errcode(i32 noundef 16797828) #29
  %7 = tail call i32 (ptr, ...) @errmsg(ptr noundef nonnull @.str.69, ptr noundef %0) #29
  %8 = tail call i32 (ptr, ...) @errdetail(ptr noundef nonnull @.str.70, ptr noundef nonnull @.str.71) #29
  tail call void @errfinish(ptr noundef nonnull @.str.3, i32 noundef 4417, ptr noundef nonnull @__func__.GetConfigOptionResetString) #29
  unreachable

9:                                                ; preds = %1
  %10 = getelementptr inbounds nuw i8, ptr %2, i64 36
  %11 = load i32, ptr %10, align 4
  switch i32 %11, label %config_enum_lookup_by_value.exit [
    i32 0, label %12
    i32 1, label %17
    i32 2, label %21
    i32 3, label %25
    i32 4, label %28
  ]

12:                                               ; preds = %9
  %13 = getelementptr inbounds nuw i8, ptr %2, i64 184
  %14 = load i8, ptr %13, align 8, !range !4, !noundef !5
  %15 = trunc nuw i8 %14 to i1
  %16 = select i1 %15, ptr @.str.72, ptr @.str.73
  br label %config_enum_lookup_by_value.exit

17:                                               ; preds = %9
  %18 = getelementptr inbounds nuw i8, ptr %2, i64 192
  %19 = load i32, ptr %18, align 8
  %20 = tail call i32 (ptr, i64, ptr, ...) @pg_snprintf(ptr noundef nonnull @GetConfigOptionResetString.buffer, i64 noundef 256, ptr noundef nonnull @.str.74, i32 noundef %19) #29
  br label %config_enum_lookup_by_value.exit

21:                                               ; preds = %9
  %22 = getelementptr inbounds nuw i8, ptr %2, i64 200
  %23 = load double, ptr %22, align 8
  %24 = tail call i32 (ptr, i64, ptr, ...) @pg_snprintf(ptr noundef nonnull @GetConfigOptionResetString.buffer, i64 noundef 256, ptr noundef nonnull @.str.75, double noundef %23) #29
  br label %config_enum_lookup_by_value.exit

25:                                               ; preds = %9
  %26 = getelementptr inbounds nuw i8, ptr %2, i64 184
  %27 = load ptr, ptr %26, align 8
  %.not = icmp eq ptr %27, null
  %spec.select = select i1 %.not, ptr @.str.8, ptr %27
  br label %config_enum_lookup_by_value.exit

28:                                               ; preds = %9
  %29 = getelementptr inbounds nuw i8, ptr %2, i64 192
  %30 = load i32, ptr %29, align 8
  %31 = getelementptr inbounds nuw i8, ptr %2, i64 160
  %32 = load ptr, ptr %31, align 8
  %.not11.i = icmp eq ptr %32, null
  br i1 %.not11.i, label %.critedge.i, label %.lr.ph.i.preheader

.lr.ph.i.preheader:                               ; preds = %28
  %33 = load ptr, ptr %32, align 8
  %.not10.i14 = icmp eq ptr %33, null
  br i1 %.not10.i14, label %.critedge.i, label %.lr.ph.preheader

.lr.ph.preheader:                                 ; preds = %.lr.ph.i.preheader
  %34 = getelementptr inbounds nuw i8, ptr %32, i64 8
  %35 = load i32, ptr %34, align 8
  %36 = icmp eq i32 %35, %30
  br i1 %36, label %config_enum_lookup_by_value.exit, label %.lr.ph.i

.lr.ph.i:                                         ; preds = %.lr.ph.preheader, %.lr.ph
  %.012.i1519 = phi ptr [ %37, %.lr.ph ], [ %32, %.lr.ph.preheader ]
  %37 = getelementptr inbounds nuw i8, ptr %.012.i1519, i64 16
  %38 = load ptr, ptr %37, align 8
  %.not10.i = icmp eq ptr %38, null
  br i1 %.not10.i, label %.critedge.i, label %.lr.ph

.lr.ph:                                           ; preds = %.lr.ph.i
  %39 = getelementptr inbounds nuw i8, ptr %.012.i1519, i64 24
  %40 = load i32, ptr %39, align 8
  %41 = icmp eq i32 %40, %30
  br i1 %41, label %config_enum_lookup_by_value.exit, label %.lr.ph.i

.critedge.i:                                      ; preds = %.lr.ph.i, %.lr.ph.i.preheader, %28
  %42 = tail call zeroext i1 @errstart_cold(i32 noundef 21, ptr noundef null) #31
  tail call void @llvm.assume(i1 %42)
  %43 = load ptr, ptr %2, align 8
  %44 = tail call i32 (ptr, ...) @errmsg_internal(ptr noundef nonnull @.str.55, i32 noundef %30, ptr noundef %43) #29
  tail call void @errfinish(ptr noundef nonnull @.str.3, i32 noundef 3034, ptr noundef nonnull @__func__.config_enum_lookup_by_value) #29
  unreachable

config_enum_lookup_by_value.exit:                 ; preds = %.lr.ph, %.lr.ph.preheader, %9, %25, %21, %17, %12
  %.0 = phi ptr [ %spec.select, %25 ], [ @GetConfigOptionResetString.buffer, %21 ], [ @GetConfigOptionResetString.buffer, %17 ], [ %16, %12 ], [ null, %9 ], [ %33, %.lr.ph.preheader ], [ %38, %.lr.ph ]
  ret ptr %.0
}